
_ord:

;main.c,17 :: 		int ord(char c) { return (int)c; }
	MOVF       FARG_ord_c+0, 0
	MOVWF      R0+0
	CLRF       R0+1
L_end_ord:
	RETURN
; end of _ord

_parse_alarm_string:

;main.c,28 :: 		void parse_alarm_string(char alarm_string[FULL_PACKET_LENGTH]) {
;main.c,31 :: 		int index = 0;
	CLRF       parse_alarm_string_index_L0+0
	CLRF       parse_alarm_string_index_L0+1
	CLRF       parse_alarm_string_alarm_hour_L0+0
	CLRF       parse_alarm_string_alarm_hour_L0+1
	CLRF       parse_alarm_string_alarm_minute_L0+0
	CLRF       parse_alarm_string_alarm_minute_L0+1
	CLRF       parse_alarm_string_dispenser_1_state_L0+0
	CLRF       parse_alarm_string_dispenser_1_state_L0+1
	CLRF       parse_alarm_string_dispenser_2_state_L0+0
	CLRF       parse_alarm_string_dispenser_2_state_L0+1
	CLRF       parse_alarm_string_dispenser_3_state_L0+0
	CLRF       parse_alarm_string_dispenser_3_state_L0+1
	CLRF       parse_alarm_string_alarm_state_L0+0
	CLRF       parse_alarm_string_alarm_state_L0+1
;main.c,45 :: 		for(index = 0; index <= MAX_ALARMS; index++) {
	CLRF       parse_alarm_string_index_L0+0
	CLRF       parse_alarm_string_index_L0+1
;main.c,46 :: 		UART1_Write_Text("Alarm index");
	MOVLW      ?lstr1_main+0
	MOVWF      FARG_UART1_Write_Text_uart_text+0
	CALL       _UART1_Write_Text+0
;main.c,47 :: 		UART1_Write(index + 0x30);
	MOVLW      48
	ADDWF      parse_alarm_string_index_L0+0, 0
	MOVWF      FARG_UART1_Write_data_+0
	CALL       _UART1_Write+0
;main.c,50 :: 		UART1_Write_Text("  - Convirtiendo hora");
	MOVLW      ?lstr2_main+0
	MOVWF      FARG_UART1_Write_Text_uart_text+0
	CALL       _UART1_Write_Text+0
;main.c,53 :: 		(atoi(alarm_string[index+0]) * 10) + atoi(alarm_string[index+1])
	MOVF       parse_alarm_string_index_L0+0, 0
	ADDWF      FARG_parse_alarm_string_alarm_string+0, 0
	MOVWF      FSR
	MOVF       INDF+0, 0
	MOVWF      FARG_atoi_s+0
	CALL       _atoi+0
	MOVLW      10
	MOVWF      R4+0
	MOVLW      0
	MOVWF      R4+1
	CALL       _Mul_16X16_U+0
	MOVF       R0+0, 0
	MOVWF      FLOC__parse_alarm_string+0
	MOVF       R0+1, 0
	MOVWF      FLOC__parse_alarm_string+1
	MOVF       parse_alarm_string_index_L0+0, 0
	ADDLW      1
	MOVWF      R0+0
	MOVLW      0
	BTFSC      STATUS+0, 0
	ADDLW      1
	ADDWF      parse_alarm_string_index_L0+1, 0
	MOVWF      R0+1
	MOVF       R0+0, 0
	ADDWF      FARG_parse_alarm_string_alarm_string+0, 0
	MOVWF      FSR
	MOVF       INDF+0, 0
	MOVWF      FARG_atoi_s+0
	CALL       _atoi+0
	MOVF       R0+0, 0
	ADDWF      FLOC__parse_alarm_string+0, 0
	MOVWF      parse_alarm_string_alarm_hour_L0+0
	MOVF       FLOC__parse_alarm_string+1, 0
	BTFSC      STATUS+0, 0
	ADDLW      1
	ADDWF      R0+1, 0
	MOVWF      parse_alarm_string_alarm_hour_L0+1
;main.c,54 :: 		);
;main.c,56 :: 		UART1_Write_Text("  - Convirtiendo minuto");
	MOVLW      ?lstr3_main+0
	MOVWF      FARG_UART1_Write_Text_uart_text+0
	CALL       _UART1_Write_Text+0
;main.c,60 :: 		(atoi(alarm_string[index + 2]) * 10) + atoi(alarm_string[index + 3])
	MOVLW      2
	ADDWF      parse_alarm_string_index_L0+0, 0
	MOVWF      R0+0
	MOVF       parse_alarm_string_index_L0+1, 0
	BTFSC      STATUS+0, 0
	ADDLW      1
	MOVWF      R0+1
	MOVF       R0+0, 0
	ADDWF      FARG_parse_alarm_string_alarm_string+0, 0
	MOVWF      FSR
	MOVF       INDF+0, 0
	MOVWF      FARG_atoi_s+0
	CALL       _atoi+0
	MOVLW      10
	MOVWF      R4+0
	MOVLW      0
	MOVWF      R4+1
	CALL       _Mul_16X16_U+0
	MOVF       R0+0, 0
	MOVWF      FLOC__parse_alarm_string+0
	MOVF       R0+1, 0
	MOVWF      FLOC__parse_alarm_string+1
	MOVLW      3
	ADDWF      parse_alarm_string_index_L0+0, 0
	MOVWF      R0+0
	MOVF       parse_alarm_string_index_L0+1, 0
	BTFSC      STATUS+0, 0
	ADDLW      1
	MOVWF      R0+1
	MOVF       R0+0, 0
	ADDWF      FARG_parse_alarm_string_alarm_string+0, 0
	MOVWF      FSR
	MOVF       INDF+0, 0
	MOVWF      FARG_atoi_s+0
	CALL       _atoi+0
	MOVF       R0+0, 0
	ADDWF      FLOC__parse_alarm_string+0, 0
	MOVWF      parse_alarm_string_alarm_minute_L0+0
	MOVF       FLOC__parse_alarm_string+1, 0
	BTFSC      STATUS+0, 0
	ADDLW      1
	ADDWF      R0+1, 0
	MOVWF      parse_alarm_string_alarm_minute_L0+1
;main.c,61 :: 		);
;main.c,65 :: 		UART1_Write_Text("  - Convirtiendo dispensador 1");
	MOVLW      ?lstr4_main+0
	MOVWF      FARG_UART1_Write_Text_uart_text+0
	CALL       _UART1_Write_Text+0
;main.c,67 :: 		dispenser_1_state = atoi(alarm_string[4]);
	MOVLW      4
	ADDWF      FARG_parse_alarm_string_alarm_string+0, 0
	MOVWF      FSR
	MOVF       INDF+0, 0
	MOVWF      FARG_atoi_s+0
	CALL       _atoi+0
	MOVF       R0+0, 0
	MOVWF      parse_alarm_string_dispenser_1_state_L0+0
	MOVF       R0+1, 0
	MOVWF      parse_alarm_string_dispenser_1_state_L0+1
;main.c,69 :: 		UART1_Write_Text("  - Convirtiendo dispensador 2");
	MOVLW      ?lstr5_main+0
	MOVWF      FARG_UART1_Write_Text_uart_text+0
	CALL       _UART1_Write_Text+0
;main.c,71 :: 		dispenser_2_state = atoi(alarm_string[5]);
	MOVLW      5
	ADDWF      FARG_parse_alarm_string_alarm_string+0, 0
	MOVWF      FSR
	MOVF       INDF+0, 0
	MOVWF      FARG_atoi_s+0
	CALL       _atoi+0
	MOVF       R0+0, 0
	MOVWF      parse_alarm_string_dispenser_2_state_L0+0
	MOVF       R0+1, 0
	MOVWF      parse_alarm_string_dispenser_2_state_L0+1
;main.c,74 :: 		UART1_Write_Text("  - Convirtiendo dispensador 3");
	MOVLW      ?lstr6_main+0
	MOVWF      FARG_UART1_Write_Text_uart_text+0
	CALL       _UART1_Write_Text+0
;main.c,76 :: 		dispenser_3_state = atoi(alarm_string[5]);
	MOVLW      5
	ADDWF      FARG_parse_alarm_string_alarm_string+0, 0
	MOVWF      FSR
	MOVF       INDF+0, 0
	MOVWF      FARG_atoi_s+0
	CALL       _atoi+0
	MOVF       R0+0, 0
	MOVWF      parse_alarm_string_dispenser_3_state_L0+0
	MOVF       R0+1, 0
	MOVWF      parse_alarm_string_dispenser_3_state_L0+1
;main.c,79 :: 		UART1_Write_Text("  - Convirtiendo estado");
	MOVLW      ?lstr7_main+0
	MOVWF      FARG_UART1_Write_Text_uart_text+0
	CALL       _UART1_Write_Text+0
;main.c,81 :: 		alarm_state = TO_BOOL(atoi(alarm_string[6]));
	MOVLW      6
	ADDWF      FARG_parse_alarm_string_alarm_string+0, 0
	MOVWF      FSR
	MOVF       INDF+0, 0
	MOVWF      FARG_atoi_s+0
	CALL       _atoi+0
	MOVLW      128
	MOVWF      R2+0
	MOVLW      128
	XORWF      R0+1, 0
	SUBWF      R2+0, 0
	BTFSS      STATUS+0, 2
	GOTO       L__parse_alarm_string27
	MOVF       R0+0, 0
	SUBLW      0
L__parse_alarm_string27:
	BTFSC      STATUS+0, 0
	GOTO       L_parse_alarm_string3
	MOVLW      1
	MOVWF      ?FLOC___parse_alarm_stringT45+0
	GOTO       L_parse_alarm_string4
L_parse_alarm_string3:
	CLRF       ?FLOC___parse_alarm_stringT45+0
L_parse_alarm_string4:
	MOVF       ?FLOC___parse_alarm_stringT45+0, 0
	MOVWF      parse_alarm_string_alarm_state_L0+0
	MOVLW      0
	BTFSC      parse_alarm_string_alarm_state_L0+0, 7
	MOVLW      255
	MOVWF      parse_alarm_string_alarm_state_L0+1
;main.c,84 :: 		UART1_Write_Text("  - Asignando estados");
	MOVLW      ?lstr8_main+0
	MOVWF      FARG_UART1_Write_Text_uart_text+0
	CALL       _UART1_Write_Text+0
;main.c,86 :: 		alarm_hours[index] = alarm_hour;
	MOVF       parse_alarm_string_index_L0+0, 0
	MOVWF      R0+0
	MOVF       parse_alarm_string_index_L0+1, 0
	MOVWF      R0+1
	RLF        R0+0, 1
	RLF        R0+1, 1
	BCF        R0+0, 0
	MOVF       R0+0, 0
	ADDLW      _alarm_hours+0
	MOVWF      FSR
	MOVF       parse_alarm_string_alarm_hour_L0+0, 0
	MOVWF      INDF+0
	MOVF       parse_alarm_string_alarm_hour_L0+1, 0
	INCF       FSR, 1
	MOVWF      INDF+0
;main.c,87 :: 		alarm_minutes[index] = alarm_minute;
	MOVF       parse_alarm_string_index_L0+0, 0
	MOVWF      R0+0
	MOVF       parse_alarm_string_index_L0+1, 0
	MOVWF      R0+1
	RLF        R0+0, 1
	RLF        R0+1, 1
	BCF        R0+0, 0
	MOVF       R0+0, 0
	ADDLW      _alarm_minutes+0
	MOVWF      FSR
	MOVF       parse_alarm_string_alarm_minute_L0+0, 0
	MOVWF      INDF+0
	MOVF       parse_alarm_string_alarm_minute_L0+1, 0
	INCF       FSR, 1
	MOVWF      INDF+0
;main.c,88 :: 		dispenser_1_states[index] = dispenser_1_state;
	MOVF       parse_alarm_string_index_L0+0, 0
	MOVWF      R0+0
	MOVF       parse_alarm_string_index_L0+1, 0
	MOVWF      R0+1
	RLF        R0+0, 1
	RLF        R0+1, 1
	BCF        R0+0, 0
	MOVF       R0+0, 0
	ADDLW      _dispenser_1_states+0
	MOVWF      FSR
	MOVF       parse_alarm_string_dispenser_1_state_L0+0, 0
	MOVWF      INDF+0
	MOVF       parse_alarm_string_dispenser_1_state_L0+1, 0
	INCF       FSR, 1
	MOVWF      INDF+0
;main.c,89 :: 		dispenser_2_states[index] = dispenser_2_state;
	MOVF       parse_alarm_string_index_L0+0, 0
	MOVWF      R0+0
	MOVF       parse_alarm_string_index_L0+1, 0
	MOVWF      R0+1
	RLF        R0+0, 1
	RLF        R0+1, 1
	BCF        R0+0, 0
	MOVF       R0+0, 0
	ADDLW      _dispenser_2_states+0
	MOVWF      FSR
	MOVF       parse_alarm_string_dispenser_2_state_L0+0, 0
	MOVWF      INDF+0
	MOVF       parse_alarm_string_dispenser_2_state_L0+1, 0
	INCF       FSR, 1
	MOVWF      INDF+0
;main.c,90 :: 		dispenser_3_states[index] = dispenser_3_state;
	MOVF       parse_alarm_string_index_L0+0, 0
	MOVWF      R0+0
	MOVF       parse_alarm_string_index_L0+1, 0
	MOVWF      R0+1
	RLF        R0+0, 1
	RLF        R0+1, 1
	BCF        R0+0, 0
	MOVF       R0+0, 0
	ADDLW      _dispenser_3_states+0
	MOVWF      FSR
	MOVF       parse_alarm_string_dispenser_3_state_L0+0, 0
	MOVWF      INDF+0
	MOVF       parse_alarm_string_dispenser_3_state_L0+1, 0
	INCF       FSR, 1
	MOVWF      INDF+0
;main.c,91 :: 		alarm_set_states[index] = alarm_state;
	MOVF       parse_alarm_string_index_L0+0, 0
	MOVWF      R0+0
	MOVF       parse_alarm_string_index_L0+1, 0
	MOVWF      R0+1
	RLF        R0+0, 1
	RLF        R0+1, 1
	BCF        R0+0, 0
	MOVF       R0+0, 0
	ADDLW      _alarm_set_states+0
	MOVWF      FSR
	MOVF       parse_alarm_string_alarm_state_L0+0, 0
	MOVWF      INDF+0
	MOVF       parse_alarm_string_alarm_state_L0+1, 0
	INCF       FSR, 1
	MOVWF      INDF+0
;main.c,93 :: 		LED_0 = TO_BOOL(alarm_hour == 13);
	MOVLW      0
	XORWF      parse_alarm_string_alarm_hour_L0+1, 0
	BTFSS      STATUS+0, 2
	GOTO       L__parse_alarm_string28
	MOVLW      1
	XORWF      parse_alarm_string_alarm_hour_L0+0, 0
L__parse_alarm_string28:
	BTFSS      STATUS+0, 2
	GOTO       L_parse_alarm_string5
	MOVLW      1
	MOVWF      ?FLOC___parse_alarm_stringT67+0
	GOTO       L_parse_alarm_string6
L_parse_alarm_string5:
	CLRF       ?FLOC___parse_alarm_stringT67+0
L_parse_alarm_string6:
	BTFSC      ?FLOC___parse_alarm_stringT67+0, 0
	GOTO       L__parse_alarm_string29
	BCF        PORTB+0, 0
	GOTO       L__parse_alarm_string30
L__parse_alarm_string29:
	BSF        PORTB+0, 0
L__parse_alarm_string30:
;main.c,94 :: 		UART1_Write(65 + alarm_hour);
	MOVF       parse_alarm_string_alarm_hour_L0+0, 0
	ADDLW      65
	MOVWF      FARG_UART1_Write_data_+0
	CALL       _UART1_Write+0
;main.c,95 :: 		UART1_Write(65);
	MOVLW      65
	MOVWF      FARG_UART1_Write_data_+0
	CALL       _UART1_Write+0
;main.c,96 :: 		LED_1 = alarm_minute == 11?1:0;
	MOVLW      0
	XORWF      parse_alarm_string_alarm_minute_L0+1, 0
	BTFSS      STATUS+0, 2
	GOTO       L__parse_alarm_string31
	MOVLW      11
	XORWF      parse_alarm_string_alarm_minute_L0+0, 0
L__parse_alarm_string31:
	BTFSS      STATUS+0, 2
	GOTO       L_parse_alarm_string7
	MOVLW      1
	MOVWF      ?FLOC___parse_alarm_stringT72+0
	GOTO       L_parse_alarm_string8
L_parse_alarm_string7:
	CLRF       ?FLOC___parse_alarm_stringT72+0
L_parse_alarm_string8:
	BTFSC      ?FLOC___parse_alarm_stringT72+0, 0
	GOTO       L__parse_alarm_string32
	BCF        PORTB+0, 1
	GOTO       L__parse_alarm_string33
L__parse_alarm_string32:
	BSF        PORTB+0, 1
L__parse_alarm_string33:
;main.c,97 :: 		LED_2 = dispenser_1_state == 1?1:0;
	MOVLW      0
	XORWF      parse_alarm_string_dispenser_1_state_L0+1, 0
	BTFSS      STATUS+0, 2
	GOTO       L__parse_alarm_string34
	MOVLW      1
	XORWF      parse_alarm_string_dispenser_1_state_L0+0, 0
L__parse_alarm_string34:
	BTFSS      STATUS+0, 2
	GOTO       L_parse_alarm_string9
	MOVLW      1
	MOVWF      ?FLOC___parse_alarm_stringT76+0
	GOTO       L_parse_alarm_string10
L_parse_alarm_string9:
	CLRF       ?FLOC___parse_alarm_stringT76+0
L_parse_alarm_string10:
	BTFSC      ?FLOC___parse_alarm_stringT76+0, 0
	GOTO       L__parse_alarm_string35
	BCF        PORTB+0, 2
	GOTO       L__parse_alarm_string36
L__parse_alarm_string35:
	BSF        PORTB+0, 2
L__parse_alarm_string36:
;main.c,98 :: 		LED_3 = dispenser_2_state == 0?1:0;
	MOVLW      0
	XORWF      parse_alarm_string_dispenser_2_state_L0+1, 0
	BTFSS      STATUS+0, 2
	GOTO       L__parse_alarm_string37
	MOVLW      0
	XORWF      parse_alarm_string_dispenser_2_state_L0+0, 0
L__parse_alarm_string37:
	BTFSS      STATUS+0, 2
	GOTO       L_parse_alarm_string11
	MOVLW      1
	MOVWF      ?FLOC___parse_alarm_stringT80+0
	GOTO       L_parse_alarm_string12
L_parse_alarm_string11:
	CLRF       ?FLOC___parse_alarm_stringT80+0
L_parse_alarm_string12:
	BTFSC      ?FLOC___parse_alarm_stringT80+0, 0
	GOTO       L__parse_alarm_string38
	BCF        PORTB+0, 3
	GOTO       L__parse_alarm_string39
L__parse_alarm_string38:
	BSF        PORTB+0, 3
L__parse_alarm_string39:
;main.c,99 :: 		LED_4 = dispenser_3_state == 1?1:0;
	MOVLW      0
	XORWF      parse_alarm_string_dispenser_3_state_L0+1, 0
	BTFSS      STATUS+0, 2
	GOTO       L__parse_alarm_string40
	MOVLW      1
	XORWF      parse_alarm_string_dispenser_3_state_L0+0, 0
L__parse_alarm_string40:
	BTFSS      STATUS+0, 2
	GOTO       L_parse_alarm_string13
	MOVLW      1
	MOVWF      ?FLOC___parse_alarm_stringT84+0
	GOTO       L_parse_alarm_string14
L_parse_alarm_string13:
	CLRF       ?FLOC___parse_alarm_stringT84+0
L_parse_alarm_string14:
	BTFSC      ?FLOC___parse_alarm_stringT84+0, 0
	GOTO       L__parse_alarm_string41
	BCF        PORTB+0, 4
	GOTO       L__parse_alarm_string42
L__parse_alarm_string41:
	BSF        PORTB+0, 4
L__parse_alarm_string42:
;main.c,100 :: 		LED_5 = alarm_state == 1?1:0;
	MOVLW      0
	XORWF      parse_alarm_string_alarm_state_L0+1, 0
	BTFSS      STATUS+0, 2
	GOTO       L__parse_alarm_string43
	MOVLW      1
	XORWF      parse_alarm_string_alarm_state_L0+0, 0
L__parse_alarm_string43:
	BTFSS      STATUS+0, 2
	GOTO       L_parse_alarm_string15
	MOVLW      1
	MOVWF      ?FLOC___parse_alarm_stringT88+0
	GOTO       L_parse_alarm_string16
L_parse_alarm_string15:
	CLRF       ?FLOC___parse_alarm_stringT88+0
L_parse_alarm_string16:
	BTFSC      ?FLOC___parse_alarm_stringT88+0, 0
	GOTO       L__parse_alarm_string44
	BCF        PORTB+0, 5
	GOTO       L__parse_alarm_string45
L__parse_alarm_string44:
	BSF        PORTB+0, 5
L__parse_alarm_string45:
;main.c,102 :: 		}
L_parse_alarm_string1:
;main.c,103 :: 		}
L_end_parse_alarm_string:
	RETURN
; end of _parse_alarm_string

_main:

;main.c,105 :: 		void main() {
;main.c,106 :: 		TRISB = 0;
	CLRF       TRISB+0
;main.c,108 :: 		LED_0 = 0;
	BCF        PORTB+0, 0
;main.c,109 :: 		LED_1 = 0;
	BCF        PORTB+0, 1
;main.c,110 :: 		LED_2 = 0;
	BCF        PORTB+0, 2
;main.c,111 :: 		LED_3 = 0;
	BCF        PORTB+0, 3
;main.c,112 :: 		LED_4 = 0;
	BCF        PORTB+0, 4
;main.c,113 :: 		LED_5 = 0;
	BCF        PORTB+0, 5
;main.c,114 :: 		LED_6 = 0;
	BCF        PORTB+0, 6
;main.c,115 :: 		Delay_ms(500);
	MOVLW      6
	MOVWF      R11+0
	MOVLW      19
	MOVWF      R12+0
	MOVLW      173
	MOVWF      R13+0
L_main17:
	DECFSZ     R13+0, 1
	GOTO       L_main17
	DECFSZ     R12+0, 1
	GOTO       L_main17
	DECFSZ     R11+0, 1
	GOTO       L_main17
	NOP
	NOP
;main.c,116 :: 		LED_6 = 1;
	BSF        PORTB+0, 6
;main.c,118 :: 		PORTC = 0x00;
	CLRF       PORTC+0
;main.c,119 :: 		TRISC = 0x80;  // PORTC.Bit7 is Input for UART.
	MOVLW      128
	MOVWF      TRISC+0
;main.c,121 :: 		strcpy(inputBuffer, "");
	MOVLW      _inputBuffer+0
	MOVWF      FARG_strcpy_to+0
	MOVLW      ?lstr9_main+0
	MOVWF      FARG_strcpy_from+0
	CALL       _strcpy+0
;main.c,124 :: 		UART1_Init(9600);
	MOVLW      51
	MOVWF      SPBRG+0
	BSF        TXSTA+0, 2
	CALL       _UART1_Init+0
;main.c,125 :: 		Delay_ms(100);                  // Wait for UART module to stabilize
	MOVLW      2
	MOVWF      R11+0
	MOVLW      4
	MOVWF      R12+0
	MOVLW      186
	MOVWF      R13+0
L_main18:
	DECFSZ     R13+0, 1
	GOTO       L_main18
	DECFSZ     R12+0, 1
	GOTO       L_main18
	DECFSZ     R11+0, 1
	GOTO       L_main18
	NOP
;main.c,127 :: 		UART1_Write_Text("Start");
	MOVLW      ?lstr10_main+0
	MOVWF      FARG_UART1_Write_Text_uart_text+0
	CALL       _UART1_Write_Text+0
;main.c,128 :: 		UART1_Write(10);
	MOVLW      10
	MOVWF      FARG_UART1_Write_data_+0
	CALL       _UART1_Write+0
;main.c,129 :: 		UART1_Write(13);
	MOVLW      13
	MOVWF      FARG_UART1_Write_data_+0
	CALL       _UART1_Write+0
;main.c,131 :: 		while (1) {                     // Endless loop
L_main19:
;main.c,132 :: 		if (UART1_Data_Ready() == 1) {     // If data is received,
	CALL       _UART1_Data_Ready+0
	MOVF       R0+0, 0
	XORLW      1
	BTFSS      STATUS+0, 2
	GOTO       L_main21
;main.c,135 :: 		UART1_Read_Text(inputBuffer, ";", FULL_PACKET_LENGTH + 1);
	MOVLW      _inputBuffer+0
	MOVWF      FARG_UART1_Read_Text_Output+0
	MOVLW      ?lstr11_main+0
	MOVWF      FARG_UART1_Read_Text_Delimiter+0
	MOVLW      81
	MOVWF      FARG_UART1_Read_Text_Attempts+0
	CALL       _UART1_Read_Text+0
;main.c,137 :: 		if (strlen(inputBuffer) > 0) {
	MOVLW      _inputBuffer+0
	MOVWF      FARG_strlen_s+0
	CALL       _strlen+0
	MOVLW      128
	MOVWF      R2+0
	MOVLW      128
	XORWF      R0+1, 0
	SUBWF      R2+0, 0
	BTFSS      STATUS+0, 2
	GOTO       L__main47
	MOVF       R0+0, 0
	SUBLW      0
L__main47:
	BTFSC      STATUS+0, 0
	GOTO       L_main22
;main.c,138 :: 		UART1_Write_Text(inputBuffer);
	MOVLW      _inputBuffer+0
	MOVWF      FARG_UART1_Write_Text_uart_text+0
	CALL       _UART1_Write_Text+0
;main.c,140 :: 		UART1_Write_Text("-P-");
	MOVLW      ?lstr12_main+0
	MOVWF      FARG_UART1_Write_Text_uart_text+0
	CALL       _UART1_Write_Text+0
;main.c,141 :: 		UART1_Write_Text(inputBuffer);
	MOVLW      _inputBuffer+0
	MOVWF      FARG_UART1_Write_Text_uart_text+0
	CALL       _UART1_Write_Text+0
;main.c,142 :: 		UART1_Write_Text("-P-");
	MOVLW      ?lstr13_main+0
	MOVWF      FARG_UART1_Write_Text_uart_text+0
	CALL       _UART1_Write_Text+0
;main.c,145 :: 		parse_alarm_string(inputBuffer);
	MOVLW      _inputBuffer+0
	MOVWF      FARG_parse_alarm_string_alarm_string+0
	CALL       _parse_alarm_string+0
;main.c,147 :: 		strcpy(inputBuffer, "");
	MOVLW      _inputBuffer+0
	MOVWF      FARG_strcpy_to+0
	MOVLW      ?lstr14_main+0
	MOVWF      FARG_strcpy_from+0
	CALL       _strcpy+0
;main.c,148 :: 		} else {
	GOTO       L_main23
L_main22:
;main.c,150 :: 		UART1_Write_Text("Puta");
	MOVLW      ?lstr15_main+0
	MOVWF      FARG_UART1_Write_Text_uart_text+0
	CALL       _UART1_Write_Text+0
;main.c,152 :: 		}
L_main23:
;main.c,153 :: 		}
L_main21:
;main.c,156 :: 		delay_ms(250);
	MOVLW      3
	MOVWF      R11+0
	MOVLW      138
	MOVWF      R12+0
	MOVLW      85
	MOVWF      R13+0
L_main24:
	DECFSZ     R13+0, 1
	GOTO       L_main24
	DECFSZ     R12+0, 1
	GOTO       L_main24
	DECFSZ     R11+0, 1
	GOTO       L_main24
	NOP
	NOP
;main.c,157 :: 		}
	GOTO       L_main19
;main.c,158 :: 		}
L_end_main:
	GOTO       $+0
; end of _main
